; Function Attrs: mustprogress uwtable
define noundef ptr @uregex_getUText_75(ptr noundef readonly %regexp2, ptr noundef %dest, ptr noundef %status) local_unnamed_addr #5 {
entry:
  %0 = load i32, ptr %status, align 4
  %cmp.i.i = icmp slt i32 %0, 1
  br i1 %cmp.i.i, label %if.end.i, label %return

if.end.i:                                         ; preds = %entry
  %cmp.i = icmp eq ptr %regexp2, null
  br i1 %cmp.i, label %return.sink.split.i, label %lor.lhs.false.i

lor.lhs.false.i:                                  ; preds = %if.end.i
  %1 = load i32, ptr %regexp2, align 8
  %cmp1.not.i = icmp eq i32 %1, 1919252592
  br i1 %cmp1.not.i, label %if.end, label %return.sink.split.i

return.sink.split.i:                              ; preds = %lor.lhs.false.i, %if.end.i
  store i32 1, ptr %status, align 4
  br label %return

if.end:                                           ; preds = %lor.lhs.false.i
  %fMatcher = getelementptr inbounds i8, ptr %regexp2, i64 40
  %2 = load ptr, ptr %fMatcher, align 8
  %call1 = tail call noundef ptr @_ZNK6icu_7512RegexMatcher8getInputEP5UTextR10UErrorCode(ptr noundef nonnull align 8 dereferenceable(336) %2, ptr noundef %dest, ptr noundef nonnull align 4 dereferenceable(4) %status)
  br label %return

return:                                           ; preds = %return.sink.split.i, %entry, %if.end
  %retval.0 = phi ptr [ %call1, %if.end ], [ %dest, %entry ], [ %dest, %return.sink.split.i ]
  ret ptr %retval.0
}